(dp0
S'METTS MARK'
p1
(dp2
S'to_messages'
p3
I807
sS'deferral_payments'
p4
S'NaN'
p5
sS'financial_aggregate'
p6
S'NaN'
p7
sS'expenses'
p8
I94299
sS'poi_interaction'
p9
F0.04665071770334928
sS'poi'
p10
I00
sS'deferred_income'
p11
g5
sS'email_address'
p12
S'mark.metts@enron.com'
p13
sS'long_term_incentive'
p14
g5
sS'restricted_stock_deferred'
p15
g5
sS'shared_receipt_with_poi'
p16
I702
sS'loan_advances'
p17
g5
sS'from_messages'
p18
I29
sS'other'
p19
I1740
sS'director_fees'
p20
g5
sS'bonus'
p21
I600000
sS'total_stock_value'
p22
I585062
sS'from_poi_to_this_person'
p23
I38
sS'from_this_person_to_poi'
p24
I1
sS'restricted_stock'
p25
I585062
sS'salary'
p26
I365788
sS'total_payments'
p27
I1061827
sS'exercised_stock_options'
p28
g5
ssS'BAXTER JOHN C'
p29
(dp30
g3
g5
sg4
I1295738
sg6
I17570904
sg8
I11200
sg9
g7
sg10
I00
sg11
I-1386055
sg12
g5
sg14
I1586055
sg15
g5
sg16
g5
sg17
g5
sg18
g5
sg19
I2660303
sg20
g5
sg21
I1200000
sg22
I10623258
sg23
g5
sg24
g5
sg25
I3942714
sg26
I267102
sg27
I5634343
sg28
I6680544
ssS'ELLIOTT STEVEN'
p31
(dp32
g3
g5
sg4
g5
sg6
I11740020
sg8
I78552
sg9
g7
sg10
I00
sg11
I-400729
sg12
S'steven.elliott@enron.com'
p33
sg14
g5
sg15
g5
sg16
g5
sg17
g5
sg18
g5
sg19
I12961
sg20
g5
sg21
I350000
sg22
I6678735
sg23
g5
sg24
g5
sg25
I1788391
sg26
I170941
sg27
I211725
sg28
I4890344
ssS'CORDES WILLIAM R'
p34
(dp35
g3
I764
sg4
g5
sg6
g7
sg8
g5
sg9
F0.01288659793814433
sg10
I00
sg11
g5
sg12
S'bill.cordes@enron.com'
p36
sg14
g5
sg15
g5
sg16
I58
sg17
g5
sg18
I12
sg19
g5
sg20
g5
sg21
g5
sg22
I1038185
sg23
I10
sg24
I0
sg25
I386335
sg26
g5
sg27
g5
sg28
I651850
ssS'HANNON KEVIN P'
p37
(dp38
g3
I1045
sg4
g5
sg6
I12172359
sg8
I34039
sg9
F0.04921077065923862
sg10
I01
sg11
I-3117011
sg12
S'kevin.hannon@enron.com'
p39
sg14
I1617011
sg15
g5
sg16
I1035
sg17
g5
sg18
I32
sg19
I11350
sg20
g5
sg21
I1500000
sg22
I6391065
sg23
I32
sg24
I21
sg25
I853064
sg26
I243293
sg27
I288682
sg28
I5538001
ssS'MORDAUNT KRISTINA M'
p40
(dp41
g3
g5
sg4
g5
sg6
g7
sg8
I35018
sg9
g7
sg10
I00
sg11
g5
sg12
S'kristina.mordaunt@enron.com'
p42
sg14
g5
sg15
g5
sg16
g5
sg17
g5
sg18
g5
sg19
I1411
sg20
g5
sg21
I325000
sg22
I208510
sg23
g5
sg24
g5
sg25
I208510
sg26
I267093
sg27
I628522
sg28
g5
ssS'MEYER ROCKFORD G'
p43
(dp44
g3
I232
sg4
I1848227
sg6
g7
sg8
g5
sg9
F0.0
sg10
I00
sg11
g5
sg12
S'rockford.meyer@enron.com'
p45
sg14
g5
sg15
g5
sg16
I22
sg17
g5
sg18
I28
sg19
g5
sg20
g5
sg21
g5
sg22
I955873
sg23
I0
sg24
I0
sg25
I462384
sg26
g5
sg27
I1848227
sg28
I493489
ssS'MCMAHON JEFFREY'
p46
(dp47
g3
I2355
sg4
g5
sg6
I3137357
sg8
I137108
sg9
F0.03495630461922597
sg10
I00
sg11
g5
sg12
S'jeffrey.mcmahon@enron.com'
p48
sg14
I694862
sg15
g5
sg16
I2228
sg17
g5
sg18
I48
sg19
I297353
sg20
g5
sg21
I2600000
sg22
I1662855
sg23
I58
sg24
I26
sg25
I558801
sg26
I370448
sg27
I4099771
sg28
I1104054
ssS'HAEDICKE MARK E'
p49
(dp50
g3
I4009
sg4
I2157527
sg6
I1785969
sg8
I76169
sg9
F0.04050420168067227
sg10
I00
sg11
I-934484
sg12
S'mark.haedicke@enron.com'
p51
sg14
I983346
sg15
I-329825
sg16
I1847
sg17
g5
sg18
I1941
sg19
I52382
sg20
g5
sg21
I1150000
sg22
I803094
sg23
I180
sg24
I61
sg25
I524169
sg26
I374125
sg27
I3859065
sg28
I608750
ssS'PIPER GREGORY F'
p52
(dp53
g3
I1238
sg4
I1130036
sg6
I1957671
sg8
I43057
sg9
F0.07465753424657534
sg10
I00
sg11
I-33333
sg12
S'greg.piper@enron.com'
p54
sg14
g5
sg15
I-409554
sg16
I742
sg17
g5
sg18
I222
sg19
I778
sg20
g5
sg21
I400000
sg22
I880290
sg23
I61
sg24
I48
sg25
I409554
sg26
I197091
sg27
I1737629
sg28
I880290
ssS'HUMPHREY GENE E'
p55
(dp56
g3
I128
sg4
I2964506
sg6
I4696260
sg8
I4994
sg9
F0.18620689655172415
sg10
I00
sg11
g5
sg12
S'gene.humphrey@enron.com'
p57
sg14
g5
sg15
g5
sg16
I119
sg17
g5
sg18
I17
sg19
g5
sg20
g5
sg21
g5
sg22
I2282768
sg23
I10
sg24
I17
sg25
g5
sg26
I130724
sg27
I3100224
sg28
I2282768
ssS'NOLES JAMES L'
p58
(dp59
g3
g5
sg4
I774401
sg6
g7
sg8
g5
sg9
g7
sg10
I00
sg11
g5
sg12
g5
sg14
g5
sg15
I-94556
sg16
g5
sg17
g5
sg18
g5
sg19
g5
sg20
g5
sg21
g5
sg22
I368705
sg23
g5
sg24
g5
sg25
I463261
sg26
g5
sg27
I774401
sg28
g5
ssS'BLACHMAN JEREMY M'
p60
(dp61
g3
I2475
sg4
g5
sg6
I1968213
sg8
I84208
sg9
F0.010847730012053034
sg10
I00
sg11
g5
sg12
S'jeremy.blachman@enron.com'
p62
sg14
I831809
sg15
g5
sg16
I2326
sg17
g5
sg18
I14
sg19
I272
sg20
g5
sg21
I850000
sg22
I954354
sg23
I25
sg24
I2
sg25
I189041
sg26
I248546
sg27
I2014835
sg28
I765313
ssS'SUNDE MARTIN'
p63
(dp64
g3
I2647
sg4
g5
sg6
g7
sg8
g5
sg9
F0.0186219739292365
sg10
I00
sg11
g5
sg12
S'marty.sunde@enron.com'
p65
sg14
I476451
sg15
g5
sg16
I2565
sg17
g5
sg18
I38
sg19
I111122
sg20
g5
sg21
I700000
sg22
I698920
sg23
I37
sg24
I13
sg25
I698920
sg26
I257486
sg27
I1545059
sg28
g5
ssS'GIBBS DANA R'
p66
(dp67
g3
I169
sg4
I504610
sg6
g7
sg8
g5
sg9
F0.0
sg10
I00
sg11
g5
sg12
S'dana.gibbs@enron.com'
p68
sg14
I461912
sg15
g5
sg16
I23
sg17
g5
sg18
I12
sg19
g5
sg20
g5
sg21
g5
sg22
I2218275
sg23
I0
sg24
I0
sg25
g5
sg26
g5
sg27
I966522
sg28
I2218275
ssS'LOWRY CHARLES P'
p69
(dp70
g3
g5
sg4
g5
sg6
g7
sg8
g5
sg9
g7
sg10
I00
sg11
g5
sg12
g5
sg14
g5
sg15
I-153686
sg16
g5
sg17
g5
sg18
g5
sg19
g5
sg20
g5
sg21
g5
sg22
I372205
sg23
g5
sg24
g5
sg25
I153686
sg26
g5
sg27
g5
sg28
I372205
ssS'COLWELL WESLEY'
p71
(dp72
g3
I1758
sg4
I27610
sg6
g7
sg8
I16514
sg9
F0.13959955506117908
sg10
I01
sg11
I-144062
sg12
S'wes.colwell@enron.com'
p73
sg14
g5
sg15
g5
sg16
I1132
sg17
g5
sg18
I40
sg19
I101740
sg20
g5
sg21
I1200000
sg22
I698242
sg23
I240
sg24
I11
sg25
I698242
sg26
I288542
sg27
I1490344
sg28
g5
ssS'MULLER MARK S'
p74
(dp75
g3
I136
sg4
I842924
sg6
I2724822
sg8
g5
sg9
F0.07894736842105263
sg10
I00
sg11
I-719000
sg12
S's..muller@enron.com'
p76
sg14
I1725545
sg15
g5
sg16
I114
sg17
g5
sg18
I16
sg19
I947
sg20
g5
sg21
I1100000
sg22
I1416848
sg23
I12
sg24
I0
sg25
I360528
sg26
I251654
sg27
I3202070
sg28
I1056320
ssS'JACKSON CHARLENE R'
p77
(dp78
g3
I258
sg4
g5
sg6
I1199356
sg8
I10181
sg9
F0.14012738853503184
sg10
I00
sg11
g5
sg12
S'charlene.jackson@enron.com'
p79
sg14
g5
sg15
g5
sg16
I117
sg17
g5
sg18
I56
sg19
I2435
sg20
g5
sg21
I250000
sg22
I725735
sg23
I25
sg24
I19
sg25
I540672
sg26
I288558
sg27
I551174
sg28
I185063
ssS'WESTFAHL RICHARD K'
p80
(dp81
g3
g5
sg4
g5
sg6
g7
sg8
I51870
sg9
g7
sg10
I00
sg11
I-10800
sg12
S'dick.westfahl@enron.com'
p82
sg14
I256191
sg15
g5
sg16
g5
sg17
g5
sg18
g5
sg19
I401130
sg20
g5
sg21
g5
sg22
I384930
sg23
g5
sg24
g5
sg25
I384930
sg26
I63744
sg27
I762135
sg28
g5
ssS'WALTERS GARETH W'
p83
(dp84
g3
g5
sg4
I53625
sg6
g7
sg8
I33785
sg9
g7
sg10
I00
sg11
g5
sg12
g5
sg14
g5
sg15
g5
sg16
g5
sg17
g5
sg18
g5
sg19
g5
sg20
g5
sg21
g5
sg22
I1030329
sg23
g5
sg24
g5
sg25
g5
sg26
g5
sg27
I87410
sg28
I1030329
ssS'WALLS JR ROBERT H'
p85
(dp86
g3
I671
sg4
g5
sg6
I10602632
sg8
I50936
sg9
F0.0208078335373317
sg10
I00
sg11
g5
sg12
S'rob.walls@enron.com'
p87
sg14
I540751
sg15
g5
sg16
I215
sg17
g5
sg18
I146
sg19
I2
sg20
g5
sg21
I850000
sg22
I5898997
sg23
I17
sg24
I0
sg25
I1552453
sg26
I357091
sg27
I1798780
sg28
I4346544
ssS'KITCHEN LOUISE'
p88
(dp89
g3
I8305
sg4
g5
sg6
I899627
sg8
I5774
sg9
F0.044353633011063494
sg10
I00
sg11
g5
sg12
S'louise.kitchen@enron.com'
p90
sg14
g5
sg15
g5
sg16
I3669
sg17
g5
sg18
I1728
sg19
I93925
sg20
g5
sg21
I3100000
sg22
I547143
sg23
I251
sg24
I194
sg25
I466101
sg26
I271442
sg27
I3471141
sg28
I81042
ssS'CHAN RONNIE'
p91
(dp92
g3
g5
sg4
g5
sg6
g7
sg8
g5
sg9
g7
sg10
I00
sg11
I-98784
sg12
g5
sg14
g5
sg15
I-32460
sg16
g5
sg17
g5
sg18
g5
sg19
g5
sg20
I98784
sg21
g5
sg22
g5
sg23
g5
sg24
g5
sg25
I32460
sg26
g5
sg27
g5
sg28
g5
ssS'BELFER ROBERT'
p93
(dp94
g3
g5
sg4
I-102500
sg6
g7
sg8
g5
sg9
g7
sg10
I00
sg11
g5
sg12
g5
sg14
g5
sg15
I44093
sg16
g5
sg17
g5
sg18
g5
sg19
g5
sg20
I3285
sg21
g5
sg22
I-44093
sg23
g5
sg24
g5
sg25
g5
sg26
g5
sg27
I102500
sg28
I3285
ssS'SHANKMAN JEFFREY A'
p95
(dp96
g3
I3221
sg4
g5
sg6
I3818043
sg8
I178979
sg9
F0.029989833954591663
sg10
I00
sg11
g5
sg12
S'jeffrey.shankman@enron.com'
p97
sg14
I554422
sg15
g5
sg16
I1730
sg17
g5
sg18
I2681
sg19
I1191
sg20
g5
sg21
I2000000
sg22
I2072035
sg23
I94
sg24
I83
sg25
I630137
sg26
I304110
sg27
I3038702
sg28
I1441898
ssS'WODRASKA JOHN'
p98
(dp99
g3
g5
sg4
g5
sg6
g7
sg8
g5
sg9
g7
sg10
I00
sg11
g5
sg12
S'john.wodraska@enron.com'
p100
sg14
g5
sg15
g5
sg16
g5
sg17
g5
sg18
g5
sg19
I189583
sg20
g5
sg21
g5
sg22
g5
sg23
g5
sg24
g5
sg25
g5
sg26
g5
sg27
I189583
sg28
g5
ssS'BERGSIEKER RICHARD P'
p101
(dp102
g3
I383
sg4
g5
sg6
g7
sg8
I59175
sg9
F0.00904977375565611
sg10
I00
sg11
I-485813
sg12
S'rick.bergsieker@enron.com'
p103
sg14
I180250
sg15
g5
sg16
I233
sg17
g5
sg18
I59
sg19
I427316
sg20
g5
sg21
I250000
sg22
I659249
sg23
I4
sg24
I0
sg25
I659249
sg26
I187922
sg27
I618850
sg28
g5
ssS'URQUHART JOHN A'
p104
(dp105
g3
g5
sg4
g5
sg6
g7
sg8
I228656
sg9
g7
sg10
I00
sg11
I-36666
sg12
g5
sg14
g5
sg15
g5
sg16
g5
sg17
g5
sg18
g5
sg19
g5
sg20
I36666
sg21
g5
sg22
g5
sg23
g5
sg24
g5
sg25
g5
sg26
g5
sg27
I228656
sg28
g5
ssS'BIBI PHILIPPE A'
p106
(dp107
g3
I1607
sg4
g5
sg6
I3523175
sg8
I38559
sg9
F0.018822100789313904
sg10
I00
sg11
g5
sg12
S'philippe.bibi@enron.com'
p108
sg14
I369721
sg15
g5
sg16
I1336
sg17
g5
sg18
I40
sg19
I425688
sg20
g5
sg21
I1000000
sg22
I1843816
sg23
I23
sg24
I8
sg25
I378082
sg26
I213625
sg27
I2047593
sg28
I1465734
ssS'RIEKER PAULA H'
p109
(dp110
g3
I1328
sg4
I214678
sg6
I3803326
sg8
I33271
sg9
F0.058865248226950356
sg10
I01
sg11
I-100000
sg12
S'paula.rieker@enron.com'
p111
sg14
g5
sg15
g5
sg16
I1258
sg17
g5
sg18
I82
sg19
I1950
sg20
g5
sg21
I700000
sg22
I1918887
sg23
I35
sg24
I48
sg25
I283649
sg26
I249201
sg27
I1099100
sg28
I1635238
ssS'WHALEY DAVID A'
p112
(dp113
g3
g5
sg4
g5
sg6
g7
sg8
g5
sg9
g7
sg10
I00
sg11
g5
sg12
g5
sg14
g5
sg15
g5
sg16
g5
sg17
g5
sg18
g5
sg19
g5
sg20
g5
sg21
g5
sg22
I98718
sg23
g5
sg24
g5
sg25
g5
sg26
g5
sg27
g5
sg28
I98718
ssS'BECK SALLY W'
p114
(dp115
g3
I7315
sg4
g5
sg6
g7
sg8
I37172
sg9
F0.0454623434551381
sg10
I00
sg11
g5
sg12
S'sally.beck@enron.com'
p116
sg14
g5
sg15
g5
sg16
I2639
sg17
g5
sg18
I4343
sg19
I566
sg20
g5
sg21
I700000
sg22
I126027
sg23
I144
sg24
I386
sg25
I126027
sg26
I231330
sg27
I969068
sg28
g5
ssS'HAUG DAVID L'
p117
(dp118
g3
I573
sg4
g5
sg6
g7
sg8
I475
sg9
F0.018581081081081082
sg10
I00
sg11
g5
sg12
S'david.haug@enron.com'
p119
sg14
g5
sg15
g5
sg16
I471
sg17
g5
sg18
I19
sg19
g5
sg20
g5
sg21
g5
sg22
I2217299
sg23
I4
sg24
I7
sg25
I2217299
sg26
g5
sg27
I475
sg28
g5
ssS'ECHOLS JOHN B'
p120
(dp121
g3
g5
sg4
g5
sg6
I1792624
sg8
I21530
sg9
g7
sg10
I00
sg11
g5
sg12
S'john.echols@enron.com'
p122
sg14
I2234774
sg15
g5
sg16
g5
sg17
g5
sg18
g5
sg19
I53775
sg20
g5
sg21
I200000
sg22
I1008941
sg23
g5
sg24
g5
sg25
I407503
sg26
I182245
sg27
I2692324
sg28
I601438
ssS'MENDELSOHN JOHN'
p123
(dp124
g3
g5
sg4
g5
sg6
g7
sg8
I148
sg9
g7
sg10
I00
sg11
I-103750
sg12
g5
sg14
g5
sg15
g5
sg16
g5
sg17
g5
sg18
g5
sg19
g5
sg20
I103750
sg21
g5
sg22
g5
sg23
g5
sg24
g5
sg25
g5
sg26
g5
sg27
I148
sg28
g5
ssS'HICKERSON GARY J'
p125
(dp126
g3
I1320
sg4
g5
sg6
g7
sg8
I98849
sg9
F0.030438010393466965
sg10
I00
sg11
g5
sg12
S'gary.hickerson@enron.com'
p127
sg14
I69223
sg15
g5
sg16
I900
sg17
g5
sg18
I27
sg19
I1936
sg20
g5
sg21
I1700000
sg22
I441096
sg23
I40
sg24
I1
sg25
I441096
sg26
I211788
sg27
I2081796
sg28
g5
ssS'CLINE KENNETH W'
p128
(dp129
g3
g5
sg4
g5
sg6
g7
sg8
g5
sg9
g7
sg10
I00
sg11
g5
sg12
g5
sg14
g5
sg15
I-472568
sg16
g5
sg17
g5
sg18
g5
sg19
g5
sg20
g5
sg21
g5
sg22
I189518
sg23
g5
sg24
g5
sg25
I662086
sg26
g5
sg27
g5
sg28
g5
ssS'LEWIS RICHARD'
p130
(dp131
g3
I952
sg4
g5
sg6
g7
sg8
g5
sg9
F0.010224948875255624
sg10
I00
sg11
g5
sg12
S'richard.lewis@enron.com'
p132
sg14
g5
sg15
g5
sg16
I739
sg17
g5
sg18
I26
sg19
g5
sg20
g5
sg21
g5
sg22
I850477
sg23
I10
sg24
I0
sg25
g5
sg26
g5
sg27
g5
sg28
I850477
ssS'HAYES ROBERT E'
p133
(dp134
g3
I504
sg4
I7961
sg6
g7
sg8
g5
sg9
F0.031007751937984496
sg10
I00
sg11
g5
sg12
S'robert.hayes@enron.com'
p135
sg14
g5
sg15
g5
sg16
I50
sg17
g5
sg18
I12
sg19
g5
sg20
g5
sg21
g5
sg22
I151418
sg23
I16
sg24
I0
sg25
I151418
sg26
g5
sg27
I7961
sg28
g5
ssS'KOPPER MICHAEL J'
p136
(dp137
g3
g5
sg4
g5
sg6
g7
sg8
I118134
sg9
g7
sg10
I01
sg11
g5
sg12
S'michael.kopper@enron.com'
p138
sg14
I602671
sg15
g5
sg16
g5
sg17
g5
sg18
g5
sg19
I907502
sg20
g5
sg21
I800000
sg22
I985032
sg23
g5
sg24
g5
sg25
I985032
sg26
I224305
sg27
I2652612
sg28
g5
ssS'LEFF DANIEL P'
p139
(dp140
g3
I2822
sg4
g5
sg6
g7
sg8
g5
sg9
F0.028076256499133447
sg10
I00
sg11
g5
sg12
S'dan.leff@enron.com'
p141
sg14
I1387399
sg15
g5
sg16
I2672
sg17
g5
sg18
I63
sg19
I3083
sg20
g5
sg21
I1000000
sg22
I360528
sg23
I67
sg24
I14
sg25
I360528
sg26
I273746
sg27
I2664228
sg28
g5
ssS'LAVORATO JOHN J'
p142
(dp143
g3
I7259
sg4
g5
sg6
I9665427
sg8
I49537
sg9
F0.09538805363673304
sg10
I00
sg11
g5
sg12
S'john.lavorato@enron.com'
p144
sg14
I2035380
sg15
g5
sg16
I3962
sg17
g5
sg18
I2585
sg19
I1552
sg20
g5
sg21
I8000000
sg22
I5167144
sg23
I528
sg24
I411
sg25
I1008149
sg26
I339288
sg27
I10425757
sg28
I4158995
ssS'BERBERIAN DAVID'
p145
(dp146
g3
g5
sg4
g5
sg6
I4334594
sg8
I11892
sg9
g7
sg10
I00
sg11
g5
sg12
S'david.berberian@enron.com'
p147
sg14
g5
sg15
g5
sg16
g5
sg17
g5
sg18
g5
sg19
g5
sg20
g5
sg21
g5
sg22
I2493616
sg23
g5
sg24
g5
sg25
I869220
sg26
I216582
sg27
I228474
sg28
I1624396
ssS'DETMERING TIMOTHY J'
p148
(dp149
g3
g5
sg4
I875307
sg6
I4266230
sg8
I52255
sg9
g7
sg10
I00
sg11
I-775241
sg12
S'timothy.detmering@enron.com'
p150
sg14
I415657
sg15
I-315068
sg16
g5
sg17
g5
sg18
g5
sg19
I1105
sg20
g5
sg21
I425000
sg22
I2027865
sg23
g5
sg24
g5
sg25
I315068
sg26
I210500
sg27
I1204583
sg28
I2027865
ssS'WAKEHAM JOHN'
p151
(dp152
g3
g5
sg4
g5
sg6
g7
sg8
I103773
sg9
g7
sg10
I00
sg11
g5
sg12
g5
sg14
g5
sg15
g5
sg16
g5
sg17
g5
sg18
g5
sg19
g5
sg20
I109298
sg21
g5
sg22
g5
sg23
g5
sg24
g5
sg25
g5
sg26
g5
sg27
I213071
sg28
g5
ssS'POWERS WILLIAM'
p153
(dp154
g3
I653
sg4
g5
sg6
g7
sg8
g5
sg9
F0.0
sg10
I00
sg11
I-17500
sg12
S'ken.powers@enron.com'
p155
sg14
g5
sg15
g5
sg16
I12
sg17
g5
sg18
I26
sg19
g5
sg20
I17500
sg21
g5
sg22
g5
sg23
I0
sg24
I0
sg25
g5
sg26
g5
sg27
g5
sg28
g5
ssS'GOLD JOSEPH'
p156
(dp157
g3
g5
sg4
g5
sg6
I1587006
sg8
g5
sg9
g7
sg10
I00
sg11
g5
sg12
S'joe.gold@enron.com'
p158
sg14
I304805
sg15
g5
sg16
g5
sg17
g5
sg18
g5
sg19
I819288
sg20
g5
sg21
I750000
sg22
I877611
sg23
g5
sg24
g5
sg25
I441096
sg26
I272880
sg27
I2146973
sg28
I436515
ssS'BANNANTINE JAMES M'
p159
(dp160
g3
I566
sg4
g5
sg6
I9290121
sg8
I56301
sg9
F0.06554621848739496
sg10
I00
sg11
I-5104
sg12
S'james.bannantine@enron.com'
p161
sg14
g5
sg15
I-560222
sg16
I465
sg17
g5
sg18
I29
sg19
I864523
sg20
g5
sg21
g5
sg22
I5243487
sg23
I39
sg24
I0
sg25
I1757552
sg26
I477
sg27
I916197
sg28
I4046157
ssS'DUNCAN JOHN H'
p162
(dp163
g3
g5
sg4
g5
sg6
g7
sg8
g5
sg9
g7
sg10
I00
sg11
I-25000
sg12
g5
sg14
g5
sg15
g5
sg16
g5
sg17
g5
sg18
g5
sg19
g5
sg20
I102492
sg21
g5
sg22
I371750
sg23
g5
sg24
g5
sg25
g5
sg26
g5
sg27
I77492
sg28
I371750
ssS'SHAPIRO RICHARD S'
p164
(dp165
g3
I15149
sg4
g5
sg6
I1863914
sg8
I137767
sg9
F0.00849425568320704
sg10
I00
sg11
g5
sg12
S'richard.shapiro@enron.com'
p166
sg14
g5
sg15
g5
sg16
I4527
sg17
g5
sg18
I1215
sg19
I705
sg20
g5
sg21
I650000
sg22
I987001
sg23
I74
sg24
I65
sg25
I379164
sg26
I269076
sg27
I1057548
sg28
I607837
ssS'SHERRIFF JOHN R'
p167
(dp168
g3
I3187
sg4
g5
sg6
I5393320
sg8
g5
sg9
F0.01555352241537054
sg10
I00
sg11
g5
sg12
S'john.sherriff@enron.com'
p169
sg14
I554422
sg15
g5
sg16
I2103
sg17
g5
sg18
I92
sg19
I1852186
sg20
g5
sg21
I1500000
sg22
I3128982
sg23
I28
sg24
I23
sg25
I1293424
sg26
I428780
sg27
I4335388
sg28
I1835558
ssS'SHELBY REX'
p170
(dp171
g3
I225
sg4
g5
sg6
I4329856
sg8
I22884
sg9
F0.10227272727272728
sg10
I01
sg11
I-4167
sg12
S'rex.shelby@enron.com'
p172
sg14
g5
sg15
g5
sg16
I91
sg17
g5
sg18
I39
sg19
I1573324
sg20
g5
sg21
I200000
sg22
I2493616
sg23
I13
sg24
I14
sg25
I869220
sg26
I211844
sg27
I2003885
sg28
I1624396
ssS'LEMAISTRE CHARLES'
p173
(dp174
g3
g5
sg4
g5
sg6
g7
sg8
g5
sg9
g7
sg10
I00
sg11
I-25000
sg12
g5
sg14
g5
sg15
g5
sg16
g5
sg17
g5
sg18
g5
sg19
g5
sg20
I112492
sg21
g5
sg22
I412878
sg23
g5
sg24
g5
sg25
g5
sg26
g5
sg27
I87492
sg28
I412878
ssS'DEFFNER JOSEPH M'
p175
(dp176
g3
I714
sg4
g5
sg6
I382710
sg8
I41626
sg9
F0.15101522842639595
sg10
I00
sg11
g5
sg12
S'joseph.deffner@enron.com'
p177
sg14
I335349
sg15
g5
sg16
I552
sg17
g5
sg18
I74
sg19
I25553
sg20
g5
sg21
I600000
sg22
I159211
sg23
I115
sg24
I4
sg25
I141833
sg26
I206121
sg27
I1208649
sg28
I17378
ssS'KISHKILL JOSEPH G'
p178
(dp179
g3
g5
sg4
g5
sg6
g7
sg8
I116335
sg9
g7
sg10
I00
sg11
I-51042
sg12
S'joe.kishkill@enron.com'
p180
sg14
g5
sg15
g5
sg16
g5
sg17
g5
sg18
g5
sg19
I465357
sg20
g5
sg21
g5
sg22
I1034346
sg23
g5
sg24
g5
sg25
I1034346
sg26
I174246
sg27
I704896
sg28
g5
ssS'WHALLEY LAWRENCE G'
p181
(dp182
g3
I6019
sg4
g5
sg6
I9872461
sg8
I57838
sg9
F0.03193916349809886
sg10
I00
sg11
g5
sg12
S'greg.whalley@enron.com'
p183
sg14
I808346
sg15
g5
sg16
I3920
sg17
g5
sg18
I556
sg19
I301026
sg20
g5
sg21
I3000000
sg22
I6079137
sg23
I186
sg24
I24
sg25
I2796177
sg26
I510364
sg27
I4677574
sg28
I3282960
ssS'PIRO JIM'
p184
(dp185
g3
I58
sg4
g5
sg6
g7
sg8
g5
sg9
F0.013513513513513514
sg10
I00
sg11
g5
sg12
S'jim.piro@enron.com'
p186
sg14
g5
sg15
g5
sg16
I3
sg17
g5
sg18
I16
sg19
g5
sg20
g5
sg21
g5
sg22
I47304
sg23
I0
sg24
I1
sg25
I47304
sg26
g5
sg27
g5
sg28
g5
ssS'MCCONNELL MICHAEL S'
p187
(dp188
g3
I3329
sg4
g5
sg6
I5089327
sg8
I81364
sg9
F0.047109207708779445
sg10
I00
sg11
g5
sg12
S'mike.mcconnell@enron.com'
p189
sg14
I554422
sg15
g5
sg16
I2189
sg17
g5
sg18
I2742
sg19
I540
sg20
g5
sg21
I1100000
sg22
I3101279
sg23
I92
sg24
I194
sg25
I1478269
sg26
I365038
sg27
I2101364
sg28
I1623010
ssS'DELAINEY DAVID W'
p190
(dp191
g3
I3093
sg4
g5
sg6
I6270537
sg8
I86174
sg9
F0.10954235637779941
sg10
I01
sg11
g5
sg12
S'david.delainey@enron.com'
p192
sg14
I1294981
sg15
g5
sg16
I2097
sg17
g5
sg18
I3069
sg19
I1661
sg20
g5
sg21
I3000000
sg22
I3614261
sg23
I66
sg24
I609
sg25
I1323148
sg26
I365163
sg27
I4747979
sg28
I2291113
ssS'SULLIVAN-SHAKLOVITZ COLLEEN'
p193
(dp194
g3
g5
sg4
I181993
sg6
I2887529
sg8
g5
sg9
g7
sg10
I00
sg11
g5
sg12
g5
sg14
I554422
sg15
g5
sg16
g5
sg17
g5
sg18
g5
sg19
I162
sg20
g5
sg21
I100000
sg22
I1362375
sg23
g5
sg24
g5
sg25
g5
sg26
I162779
sg27
I999356
sg28
I1362375
ssS'WROBEL BRUCE'
p195
(dp196
g3
g5
sg4
g5
sg6
g7
sg8
g5
sg9
g7
sg10
I00
sg11
g5
sg12
g5
sg14
g5
sg15
g5
sg16
g5
sg17
g5
sg18
g5
sg19
g5
sg20
g5
sg21
g5
sg22
I139130
sg23
g5
sg24
g5
sg25
g5
sg26
g5
sg27
g5
sg28
I139130
ssS'LINDHOLM TOD A'
p197
(dp198
g3
g5
sg4
I204075
sg6
I5850026
sg8
I57727
sg9
g7
sg10
I00
sg11
g5
sg12
S'tod.lindholm@enron.com'
p199
sg14
I175000
sg15
g5
sg16
g5
sg17
g5
sg18
g5
sg19
I2630
sg20
g5
sg21
I200000
sg22
I3064208
sg23
g5
sg24
g5
sg25
I514847
sg26
I236457
sg27
I875889
sg28
I2549361
ssS'MEYER JEROME J'
p200
(dp201
g3
g5
sg4
g5
sg6
g7
sg8
I2151
sg9
g7
sg10
I00
sg11
I-38346
sg12
g5
sg14
g5
sg15
g5
sg16
g5
sg17
g5
sg18
g5
sg19
g5
sg20
I38346
sg21
g5
sg22
g5
sg23
g5
sg24
g5
sg25
g5
sg26
g5
sg27
I2151
sg28
g5
ssS'LAY KENNETH L'
p202
(dp203
g3
I4273
sg4
I202911
sg6
I84530783
sg8
I99832
sg9
F0.03225806451612903
sg10
I01
sg11
I-300000
sg12
S'kenneth.lay@enron.com'
p204
sg14
I3600000
sg15
g5
sg16
I2411
sg17
I81525000
sg18
I36
sg19
I10359729
sg20
g5
sg21
I7000000
sg22
I49110078
sg23
I123
sg24
I16
sg25
I14761694
sg26
I1072321
sg27
I103559793
sg28
I34348384
ssS'BUTTS ROBERT H'
p205
(dp206
g3
g5
sg4
g5
sg6
g7
sg8
I9410
sg9
g7
sg10
I00
sg11
I-75000
sg12
S'bob.butts@enron.com'
p207
sg14
I175000
sg15
g5
sg16
g5
sg17
g5
sg18
g5
sg19
I150656
sg20
g5
sg21
I750000
sg22
I417619
sg23
g5
sg24
g5
sg25
I417619
sg26
I261516
sg27
I1271582
sg28
g5
ssS'OLSON CINDY K'
p208
(dp209
g3
I1184
sg4
I77716
sg6
I4572875
sg8
I63791
sg9
F0.02831715210355987
sg10
I00
sg11
g5
sg12
S'cindy.olson@enron.com'
p210
sg14
I100000
sg15
g5
sg16
I856
sg17
g5
sg18
I52
sg19
I972
sg20
g5
sg21
I750000
sg22
I2606763
sg23
I20
sg24
I15
sg25
I969729
sg26
I329078
sg27
I1321557
sg28
I1637034
ssS'MCDONALD REBECCA'
p211
(dp212
g3
I894
sg4
g5
sg6
g7
sg8
g5
sg9
F0.06063947078280044
sg10
I00
sg11
g5
sg12
S'rebecca.mcdonald@enron.com'
p213
sg14
g5
sg15
g5
sg16
I720
sg17
g5
sg18
I13
sg19
g5
sg20
g5
sg21
g5
sg22
I1691366
sg23
I54
sg24
I1
sg25
I934065
sg26
g5
sg27
g5
sg28
I757301
ssS'CUMBERLAND MICHAEL S'
p214
(dp215
g3
g5
sg4
g5
sg6
g7
sg8
I22344
sg9
g7
sg10
I00
sg11
g5
sg12
g5
sg14
I275000
sg15
g5
sg16
g5
sg17
g5
sg18
g5
sg19
I713
sg20
g5
sg21
I325000
sg22
I207940
sg23
g5
sg24
g5
sg25
I207940
sg26
I184899
sg27
I807956
sg28
g5
ssS'GAHN ROBERT S'
p216
(dp217
g3
g5
sg4
I73122
sg6
I593852
sg8
I50080
sg9
g7
sg10
I00
sg11
I-1042
sg12
g5
sg14
g5
sg15
g5
sg16
g5
sg17
g5
sg18
g5
sg19
I76547
sg20
g5
sg21
I509870
sg22
I318607
sg23
g5
sg24
g5
sg25
I235370
sg26
I192008
sg27
I900585
sg28
I83237
ssS'BADUM JAMES P'
p218
(dp219
g3
g5
sg4
I178980
sg6
g7
sg8
I3486
sg9
g7
sg10
I00
sg11
g5
sg12
g5
sg14
g5
sg15
g5
sg16
g5
sg17
g5
sg18
g5
sg19
g5
sg20
g5
sg21
g5
sg22
I257817
sg23
g5
sg24
g5
sg25
g5
sg26
g5
sg27
I182466
sg28
I257817
ssS'HERMANN ROBERT J'
p220
(dp221
g3
g5
sg4
g5
sg6
I1118295
sg8
I48357
sg9
g7
sg10
I00
sg11
I-280000
sg12
S'robert.hermann@enron.com'
p222
sg14
I150000
sg15
g5
sg16
g5
sg17
g5
sg18
g5
sg19
I416441
sg20
g5
sg21
I700000
sg22
I668132
sg23
g5
sg24
g5
sg25
I480632
sg26
I262663
sg27
I1297461
sg28
I187500
ssS'FALLON JAMES B'
p223
(dp224
g3
I1755
sg4
g5
sg6
I3577244
sg8
I95924
sg9
F0.04316939890710383
sg10
I00
sg11
g5
sg12
S'jim.fallon@enron.com'
p225
sg14
I374347
sg15
g5
sg16
I1604
sg17
g5
sg18
I75
sg19
I401481
sg20
g5
sg21
I2500000
sg22
I2332399
sg23
I42
sg24
I37
sg25
I1392142
sg26
I304588
sg27
I3676340
sg28
I940257
ssS'GATHMANN WILLIAM D'
p226
(dp227
g3
g5
sg4
g5
sg6
g7
sg8
g5
sg9
g7
sg10
I00
sg11
g5
sg12
g5
sg14
g5
sg15
I-72419
sg16
g5
sg17
g5
sg18
g5
sg19
g5
sg20
g5
sg21
g5
sg22
I1945360
sg23
g5
sg24
g5
sg25
I264013
sg26
g5
sg27
g5
sg28
I1753766
ssS'HORTON STANLEY C'
p228
(dp229
g3
I2350
sg4
I3131860
sg6
g7
sg8
g5
sg9
F0.017236342389716622
sg10
I00
sg11
g5
sg12
S'stanley.horton@enron.com'
p230
sg14
g5
sg15
g5
sg16
I1074
sg17
g5
sg18
I1073
sg19
g5
sg20
g5
sg21
g5
sg22
I7256648
sg23
I44
sg24
I15
sg25
I2046079
sg26
g5
sg27
I3131860
sg28
I5210569
ssS'BOWEN JR RAYMOND M'
p231
(dp232
g3
I1858
sg4
g5
sg6
g7
sg8
I65907
sg9
F0.08222811671087533
sg10
I01
sg11
I-833
sg12
S'raymond.bowen@enron.com'
p233
sg14
I974293
sg15
g5
sg16
I1593
sg17
g5
sg18
I27
sg19
I1621
sg20
g5
sg21
I1350000
sg22
I252055
sg23
I140
sg24
I15
sg25
I252055
sg26
I278601
sg27
I2669589
sg28
g5
ssS'GILLIS JOHN'
p234
(dp235
g3
g5
sg4
g5
sg6
g7
sg8
g5
sg9
g7
sg10
I00
sg11
g5
sg12
g5
sg14
g5
sg15
g5
sg16
g5
sg17
g5
sg18
g5
sg19
g5
sg20
g5
sg21
g5
sg22
I85641
sg23
g5
sg24
g5
sg25
I75838
sg26
g5
sg27
g5
sg28
I9803
ssS'FITZGERALD JAY L'
p236
(dp237
g3
I936
sg4
g5
sg6
I2484854
sg8
I23870
sg9
F0.009453781512605041
sg10
I00
sg11
g5
sg12
S'jay.fitzgerald@enron.com'
p238
sg14
I556416
sg15
g5
sg16
I723
sg17
g5
sg18
I16
sg19
I285414
sg20
g5
sg21
I350000
sg22
I1621236
sg23
I1
sg24
I8
sg25
I956775
sg26
I199157
sg27
I1414857
sg28
I664461
ssS'MORAN MICHAEL P'
p239
(dp240
g3
I672
sg4
g5
sg6
g7
sg8
g5
sg9
F0.0
sg10
I00
sg11
g5
sg12
S'michael.moran@enron.com'
p241
sg14
g5
sg15
g5
sg16
I127
sg17
g5
sg18
I19
sg19
g5
sg20
g5
sg21
g5
sg22
I221141
sg23
I0
sg24
I0
sg25
I161602
sg26
g5
sg27
g5
sg28
I59539
ssS'REDMOND BRIAN L'
p242
(dp243
g3
I1671
sg4
g5
sg6
I15496203
sg8
I14689
sg9
F0.13372093023255813
sg10
I00
sg11
g5
sg12
S'brian.redmond@enron.com'
p244
sg14
g5
sg15
g5
sg16
I1063
sg17
g5
sg18
I221
sg19
g5
sg20
g5
sg21
g5
sg22
I7890324
sg23
I204
sg24
I49
sg25
I381285
sg26
I96840
sg27
I111529
sg28
I7509039
ssS'BAZELIDES PHILIP J'
p245
(dp246
g3
g5
sg4
I684694
sg6
I3280100
sg8
g5
sg9
g7
sg10
I00
sg11
g5
sg12
g5
sg14
I93750
sg15
g5
sg16
g5
sg17
g5
sg18
g5
sg19
I874
sg20
g5
sg21
g5
sg22
I1599641
sg23
g5
sg24
g5
sg25
g5
sg26
I80818
sg27
I860136
sg28
I1599641
ssS'BELDEN TIMOTHY N'
p247
(dp248
g3
I7991
sg4
I2144013
sg6
I2277840
sg8
I17355
sg9
F0.03964601769911504
sg10
I01
sg11
I-2334434
sg12
S'tim.belden@enron.com'
p249
sg14
g5
sg15
g5
sg16
I5521
sg17
g5
sg18
I484
sg19
I210698
sg20
g5
sg21
I5249999
sg22
I1110705
sg23
I228
sg24
I108
sg25
I157569
sg26
I213999
sg27
I5501630
sg28
I953136
ssS'DIMICHELE RICHARD G'
p250
(dp251
g3
g5
sg4
g5
sg6
I16772325
sg8
I35812
sg9
g7
sg10
I00
sg11
g5
sg12
S'richard.dimichele@enron.com'
p252
sg14
I694862
sg15
g5
sg16
g5
sg17
g5
sg18
g5
sg19
I374689
sg20
g5
sg21
I1000000
sg22
I8317782
sg23
g5
sg24
g5
sg25
I126027
sg26
I262788
sg27
I2368151
sg28
I8191755
ssS'DURAN WILLIAM D'
p253
(dp254
g3
I904
sg4
g5
sg6
I3303471
sg8
I25785
sg9
F0.11899563318777293
sg10
I00
sg11
g5
sg12
S'w.duran@enron.com'
p255
sg14
I1105218
sg15
g5
sg16
I599
sg17
g5
sg18
I12
sg19
I1568
sg20
g5
sg21
I750000
sg22
I1640910
sg23
I106
sg24
I3
sg25
I189041
sg26
I210692
sg27
I2093263
sg28
I1451869
ssS'THORN TERENCE H'
p256
(dp257
g3
I266
sg4
I16586
sg6
I9492365
sg8
I46145
sg9
F0.0
sg10
I00
sg11
g5
sg12
S'terence.thorn@enron.com'
p258
sg14
I200000
sg15
g5
sg16
I73
sg17
g5
sg18
I41
sg19
I426629
sg20
g5
sg21
g5
sg22
I4817796
sg23
I0
sg24
I0
sg25
I365320
sg26
I222093
sg27
I911453
sg28
I4452476
ssS'FASTOW ANDREW S'
p259
(dp260
g3
g5
sg4
g5
sg6
g7
sg8
I55921
sg9
g7
sg10
I01
sg11
I-1386055
sg12
S'andrew.fastow@enron.com'
p261
sg14
I1736055
sg15
g5
sg16
g5
sg17
g5
sg18
g5
sg19
I277464
sg20
g5
sg21
I1300000
sg22
I1794412
sg23
g5
sg24
g5
sg25
I1794412
sg26
I440698
sg27
I2424083
sg28
g5
ssS'FOY JOE'
p262
(dp263
g3
I57
sg4
I181755
sg6
g7
sg8
g5
sg9
F0.0
sg10
I00
sg11
g5
sg12
S'tracy.foy@enron.com'
p264
sg14
g5
sg15
g5
sg16
I2
sg17
g5
sg18
I13
sg19
g5
sg20
g5
sg21
g5
sg22
I343434
sg23
I0
sg24
I0
sg25
g5
sg26
g5
sg27
I181755
sg28
I343434
ssS'CALGER CHRISTOPHER F'
p265
(dp266
g3
I2598
sg4
g5
sg6
g7
sg8
I35818
sg9
F0.08169219547775347
sg10
I01
sg11
I-262500
sg12
S'christopher.calger@enron.com'
p267
sg14
I375304
sg15
g5
sg16
I2188
sg17
g5
sg18
I144
sg19
I486
sg20
g5
sg21
I1250000
sg22
I126027
sg23
I199
sg24
I25
sg25
I126027
sg26
I240189
sg27
I1639297
sg28
g5
ssS'RICE KENNETH D'
p268
(dp269
g3
I905
sg4
g5
sg6
I42757350
sg8
I46950
sg9
F0.04983748645720477
sg10
I01
sg11
I-3504386
sg12
S'ken.rice@enron.com'
p270
sg14
I1617011
sg15
g5
sg16
I864
sg17
g5
sg18
I18
sg19
I174839
sg20
g5
sg21
I1750000
sg22
I22542539
sg23
I42
sg24
I4
sg25
I2748364
sg26
I420636
sg27
I505050
sg28
I19794175
ssS'KAMINSKI WINCENTY J'
p271
(dp272
g3
I4607
sg4
g5
sg6
I2101148
sg8
I83585
sg9
F0.011172595520421607
sg10
I00
sg11
g5
sg12
S'vince.kaminski@enron.com'
p273
sg14
I323466
sg15
g5
sg16
I583
sg17
g5
sg18
I14368
sg19
I4669
sg20
g5
sg21
I400000
sg22
I976037
sg23
I41
sg24
I171
sg25
I126027
sg26
I275101
sg27
I1086821
sg28
I850010
ssS'COX DAVID'
p274
(dp275
g3
I102
sg4
g5
sg6
I927472
sg8
I27861
sg9
F0.02962962962962963
sg10
I00
sg11
I-41250
sg12
S'chip.cox@enron.com'
p276
sg14
g5
sg15
g5
sg16
I71
sg17
g5
sg18
I33
sg19
I494
sg20
g5
sg21
I800000
sg22
I495633
sg23
I0
sg24
I4
sg25
I378082
sg26
I314288
sg27
I1101393
sg28
I117551
ssS'OVERDYKE JR JERE C'
p277
(dp278
g3
g5
sg4
g5
sg6
I12669113
sg8
I18834
sg9
g7
sg10
I00
sg11
g5
sg12
S'jere.overdyke@enron.com'
p279
sg14
I135836
sg15
g5
sg16
g5
sg17
g5
sg18
g5
sg19
I176
sg20
g5
sg21
g5
sg22
I7307594
sg23
g5
sg24
g5
sg25
I2041016
sg26
I94941
sg27
I249787
sg28
I5266578
ssS'PEREIRA PAULO V. FERRAZ'
p280
(dp281
g3
g5
sg4
g5
sg6
g7
sg8
I27942
sg9
g7
sg10
I00
sg11
I-101250
sg12
g5
sg14
g5
sg15
g5
sg16
g5
sg17
g5
sg18
g5
sg19
g5
sg20
I101250
sg21
g5
sg22
g5
sg23
g5
sg24
g5
sg25
g5
sg26
g5
sg27
I27942
sg28
g5
ssS'STABLER FRANK'
p282
(dp283
g3
g5
sg4
g5
sg6
g7
sg8
I16514
sg9
g7
sg10
I00
sg11
g5
sg12
S'frank.stabler@enron.com'
p284
sg14
g5
sg15
g5
sg16
g5
sg17
g5
sg18
g5
sg19
I356071
sg20
g5
sg21
I500000
sg22
I511734
sg23
g5
sg24
g5
sg25
I511734
sg26
I239502
sg27
I1112087
sg28
g5
ssS'SKILLING JEFFREY K'
p285
(dp286
g3
I3627
sg4
g5
sg6
I46454930
sg8
I29336
sg9
F0.03159303882195449
sg10
I01
sg11
g5
sg12
S'jeff.skilling@enron.com'
p287
sg14
I1920000
sg15
g5
sg16
I2042
sg17
g5
sg18
I108
sg19
I22122
sg20
g5
sg21
I5600000
sg22
I26093672
sg23
I88
sg24
I30
sg25
I6843672
sg26
I1111258
sg27
I8682716
sg28
I19250000
ssS'BLAKE JR. NORMAN P'
p288
(dp289
g3
g5
sg4
g5
sg6
g7
sg8
I1279
sg9
g7
sg10
I00
sg11
I-113784
sg12
g5
sg14
g5
sg15
g5
sg16
g5
sg17
g5
sg18
g5
sg19
g5
sg20
I113784
sg21
g5
sg22
g5
sg23
g5
sg24
g5
sg25
g5
sg26
g5
sg27
I1279
sg28
g5
ssS'SHERRICK JEFFREY B'
p290
(dp291
g3
I613
sg4
g5
sg6
g7
sg8
g5
sg9
F0.08934169278996865
sg10
I00
sg11
g5
sg12
S'jeffrey.sherrick@enron.com'
p292
sg14
g5
sg15
g5
sg16
I583
sg17
g5
sg18
I25
sg19
g5
sg20
g5
sg21
g5
sg22
I1832468
sg23
I39
sg24
I18
sg25
I405999
sg26
g5
sg27
g5
sg28
I1426469
ssS'PRENTICE JAMES'
p293
(dp294
g3
g5
sg4
I564348
sg6
g7
sg8
g5
sg9
g7
sg10
I00
sg11
g5
sg12
S'james.prentice@enron.com'
p295
sg14
g5
sg15
g5
sg16
g5
sg17
g5
sg18
g5
sg19
g5
sg20
g5
sg21
g5
sg22
I1095040
sg23
g5
sg24
g5
sg25
I208809
sg26
g5
sg27
I564348
sg28
I886231
ssS'GRAY RODNEY'
p296
(dp297
g3
g5
sg4
I93585
sg6
g7
sg8
g5
sg9
g7
sg10
I00
sg11
g5
sg12
g5
sg14
I365625
sg15
g5
sg16
g5
sg17
g5
sg18
g5
sg19
I680833
sg20
g5
sg21
g5
sg22
g5
sg23
g5
sg24
g5
sg25
g5
sg26
I6615
sg27
I1146658
sg28
g5
ssS'UMANOFF ADAM S'
p298
(dp299
g3
I111
sg4
g5
sg6
g7
sg8
I53122
sg9
F0.09302325581395349
sg10
I00
sg11
g5
sg12
S'adam.umanoff@enron.com'
p300
sg14
g5
sg15
g5
sg16
I41
sg17
g5
sg18
I18
sg19
g5
sg20
g5
sg21
I788750
sg22
g5
sg23
I12
sg24
I0
sg25
g5
sg26
I288589
sg27
I1130461
sg28
g5
ssS'KEAN STEVEN J'
p301
(dp302
g3
I12754
sg4
g5
sg6
I8580028
sg8
I41953
sg9
F0.02700763593501768
sg10
I00
sg11
g5
sg12
S'steven.kean@enron.com'
p303
sg14
I300000
sg15
g5
sg16
I3639
sg17
g5
sg18
I6759
sg19
I1231
sg20
g5
sg21
I1000000
sg22
I6153642
sg23
I140
sg24
I387
sg25
I4131594
sg26
I404338
sg27
I1747522
sg28
I2022048
ssS'FOWLER PEGGY'
p304
(dp305
g3
I517
sg4
g5
sg6
g7
sg8
g5
sg9
F0.0
sg10
I00
sg11
g5
sg12
S'kulvinder.fowler@enron.com'
p306
sg14
g5
sg15
g5
sg16
I10
sg17
g5
sg18
I36
sg19
g5
sg20
g5
sg21
g5
sg22
I1884748
sg23
I0
sg24
I0
sg25
I560170
sg26
g5
sg27
g5
sg28
I1324578
ssS'WASAFF GEORGE'
p307
(dp308
g3
I400
sg4
I831299
sg6
I3984683
sg8
g5
sg9
F0.06744186046511629
sg10
I00
sg11
I-583325
sg12
S'george.wasaff@enron.com'
p309
sg14
I200000
sg15
g5
sg16
I337
sg17
g5
sg18
I30
sg19
I1425
sg20
g5
sg21
I325000
sg22
I2056427
sg23
I22
sg24
I7
sg25
I388167
sg26
I259996
sg27
I1034395
sg28
I1668260
ssS'WHITE JR THOMAS E'
p310
(dp311
g3
g5
sg4
g5
sg6
I16758715
sg8
I81353
sg9
g7
sg10
I00
sg11
g5
sg12
S'thomas.white@enron.com'
p312
sg14
g5
sg15
g5
sg16
g5
sg17
g5
sg18
g5
sg19
I1085463
sg20
g5
sg21
I450000
sg22
I15144123
sg23
g5
sg24
g5
sg25
I13847074
sg26
I317543
sg27
I1934359
sg28
I1297049
ssS'CHRISTODOULOU DIOMEDES'
p313
(dp314
g3
g5
sg4
g5
sg6
g7
sg8
g5
sg9
g7
sg10
I00
sg11
g5
sg12
S'diomedes.christodoulou@enron.com'
p315
sg14
g5
sg15
g5
sg16
g5
sg17
g5
sg18
g5
sg19
g5
sg20
g5
sg21
g5
sg22
I6077885
sg23
g5
sg24
g5
sg25
I950730
sg26
g5
sg27
g5
sg28
I5127155
ssS'ALLEN PHILLIP K'
p316
(dp317
g3
I2902
sg4
I2869717
sg6
I3661037
sg8
I13868
sg9
F0.0219737100255052
sg10
I00
sg11
I-3081055
sg12
S'phillip.allen@enron.com'
p318
sg14
I304805
sg15
I-126027
sg16
I1407
sg17
g5
sg18
I2195
sg19
I152
sg20
g5
sg21
I4175000
sg22
I1729541
sg23
I47
sg24
I65
sg25
I126027
sg26
I201955
sg27
I4484442
sg28
I1729541
ssS'SHARP VICTORIA T'
p319
(dp320
g3
I3136
sg4
I187469
sg6
I1023355
sg8
I116337
sg9
F0.009168704156479218
sg10
I00
sg11
g5
sg12
S'vicki.sharp@enron.com'
p321
sg14
I422158
sg15
g5
sg16
I2477
sg17
g5
sg18
I136
sg19
I2401
sg20
g5
sg21
I600000
sg22
I494136
sg23
I24
sg24
I6
sg25
I213063
sg26
I248146
sg27
I1576511
sg28
I281073
ssS'JAEDICKE ROBERT'
p322
(dp323
g3
g5
sg4
g5
sg6
g7
sg8
g5
sg9
g7
sg10
I00
sg11
I-25000
sg12
g5
sg14
g5
sg15
I-44093
sg16
g5
sg17
g5
sg18
g5
sg19
g5
sg20
I108750
sg21
g5
sg22
I431750
sg23
g5
sg24
g5
sg25
I44093
sg26
g5
sg27
I83750
sg28
I431750
ssS'WINOKUR JR. HERBERT S'
p324
(dp325
g3
g5
sg4
g5
sg6
g7
sg8
I1413
sg9
g7
sg10
I00
sg11
I-25000
sg12
g5
sg14
g5
sg15
g5
sg16
g5
sg17
g5
sg18
g5
sg19
g5
sg20
I108579
sg21
g5
sg22
g5
sg23
g5
sg24
g5
sg25
g5
sg26
g5
sg27
I84992
sg28
g5
ssS'BROWN MICHAEL'
p326
(dp327
g3
I1486
sg4
g5
sg6
g7
sg8
I49288
sg9
F0.0091683038637852
sg10
I00
sg11
g5
sg12
S'michael.brown@enron.com'
p328
sg14
g5
sg15
g5
sg16
I761
sg17
g5
sg18
I41
sg19
g5
sg20
g5
sg21
g5
sg22
g5
sg23
I13
sg24
I1
sg25
g5
sg26
g5
sg27
I49288
sg28
g5
ssS'MCCLELLAN GEORGE'
p329
(dp330
g3
I1744
sg4
g5
sg6
I1718039
sg8
I228763
sg9
F0.029001673173452314
sg10
I00
sg11
I-125000
sg12
S'george.mcclellan@enron.com'
p331
sg14
g5
sg15
g5
sg16
I1469
sg17
g5
sg18
I49
sg19
I51587
sg20
g5
sg21
I900000
sg22
I947861
sg23
I52
sg24
I0
sg25
I441096
sg26
I263413
sg27
I1318763
sg28
I506765
ssS'HUGHES JAMES A'
p332
(dp333
g3
I719
sg4
g5
sg6
g7
sg8
g5
sg9
F0.05312084993359894
sg10
I00
sg11
g5
sg12
S'james.hughes@enron.com'
p334
sg14
g5
sg15
g5
sg16
I589
sg17
g5
sg18
I34
sg19
g5
sg20
g5
sg21
g5
sg22
I1118394
sg23
I35
sg24
I5
sg25
I363428
sg26
g5
sg27
g5
sg28
I754966
ssS'REYNOLDS LAWRENCE'
p335
(dp336
g3
g5
sg4
I51365
sg6
I8458962
sg8
I8409
sg9
g7
sg10
I00
sg11
I-200000
sg12
g5
sg14
I156250
sg15
I-140264
sg16
g5
sg17
g5
sg18
g5
sg19
I202052
sg20
g5
sg21
I100000
sg22
I4221891
sg23
g5
sg24
g5
sg25
I201483
sg26
I76399
sg27
I394475
sg28
I4160672
ssS'PICKERING MARK R'
p337
(dp338
g3
I898
sg4
g5
sg6
I712633
sg8
I31653
sg9
F0.007253886010362694
sg10
I00
sg11
g5
sg12
S'mark.pickering@enron.com'
p339
sg14
g5
sg15
g5
sg16
I728
sg17
I400000
sg18
I67
sg19
g5
sg20
g5
sg21
I300000
sg22
I28798
sg23
I7
sg24
I0
sg25
g5
sg26
I655037
sg27
I1386690
sg28
I28798
ssS'BHATNAGAR SANJAY'
p340
(dp341
g3
I523
sg4
g5
sg6
g7
sg8
g5
sg9
F0.0018115942028985507
sg10
I00
sg11
g5
sg12
S'sanjay.bhatnagar@enron.com'
p342
sg14
g5
sg15
I15456290
sg16
I463
sg17
g5
sg18
I29
sg19
I137864
sg20
I137864
sg21
g5
sS'total_stock_value'
p343
S'NaN'
p344
sg23
I0
sg24
I1
sg25
I-2604490
sg26
g5
sg27
I15456290
sg28
I2604490
ssS'CARTER REBECCA C'
p345
(dp346
g3
I312
sg4
g5
sg6
g7
sg8
g5
sg9
F0.11009174311926606
sg10
I00
sg11
I-159792
sg12
S'rebecca.carter@enron.com'
p347
sg14
I75000
sg15
I-307301
sg16
I196
sg17
g5
sg18
I15
sg19
I540
sg20
g5
sg21
I300000
sg22
g5
sg23
I29
sg24
I7
sg25
I307301
sg26
I261809
sg27
I477557
sg28
g5
ssS'BUCHANAN HAROLD G'
p348
(dp349
g3
I1088
sg4
g5
sg6
I2087986
sg8
I600
sg9
F0.0
sg10
I00
sg11
g5
sg12
S'john.buchanan@enron.com'
p350
sg14
I304805
sg15
g5
sg16
I23
sg17
g5
sg18
I125
sg19
I1215
sg20
g5
sg21
I500000
sg22
I1014505
sg23
I0
sg24
I0
sg25
I189041
sg26
I248017
sg27
I1054637
sg28
I825464
ssS'YEAP SOON'
p351
(dp352
g3
g5
sg4
g5
sg6
g7
sg8
I55097
sg9
g7
sg10
I00
sg11
g5
sg12
g5
sg14
g5
sg15
g5
sg16
g5
sg17
g5
sg18
g5
sg19
g5
sg20
g5
sg21
g5
sg22
I192758
sg23
g5
sg24
g5
sg25
g5
sg26
g5
sg27
I55097
sg28
I192758
ssS'MURRAY JULIA H'
p353
(dp354
g3
I2192
sg4
g5
sg6
I1227223
sg8
I57580
sg9
F0.00581135449262405
sg10
I00
sg11
g5
sg12
S'julia.murray@enron.com'
p355
sg14
I125000
sg15
g5
sg16
I395
sg17
g5
sg18
I45
sg19
I330
sg20
g5
sg21
I400000
sg22
I597461
sg23
I11
sg24
I2
sg25
I196983
sg26
I229284
sg27
I812194
sg28
I400478
ssS'GARLAND C KEVIN'
p356
(dp357
g3
I209
sg4
g5
sg6
I1764345
sg8
I48405
sg9
F0.14624505928853754
sg10
I00
sg11
g5
sg12
S'kevin.garland@enron.com'
p358
sg14
I375304
sg15
g5
sg16
I178
sg17
g5
sg18
I44
sg19
I60814
sg20
g5
sg21
I850000
sg22
I896153
sg23
I10
sg24
I27
sg25
I259907
sg26
I231946
sg27
I1566469
sg28
I636246
ssS'DODSON KEITH'
p359
(dp360
g3
I176
sg4
g5
sg6
g7
sg8
I28164
sg9
F0.06842105263157895
sg10
I00
sg11
g5
sg12
S'keith.dodson@enron.com'
p361
sg14
g5
sg15
g5
sg16
I114
sg17
g5
sg18
I14
sg19
I774
sg20
g5
sg21
I70000
sg22
g5
sg23
I10
sg24
I3
sg25
g5
sg26
I221003
sg27
I319941
sg28
g5
ssS'YEAGER F SCOTT'
p362
(dp363
g3
g5
sg4
g5
sg6
I20351713
sg8
I53947
sg9
g7
sg10
I01
sg11
g5
sg12
S'scott.yeager@enron.com'
p364
sg14
g5
sg15
g5
sg16
g5
sg17
g5
sg18
g5
sg19
I147950
sg20
g5
sg21
g5
sg22
I11884758
sg23
g5
sg24
g5
sg25
I3576206
sg26
I158403
sg27
I360300
sg28
I8308552
ssS'HIRKO JOSEPH'
p365
(dp366
g3
g5
sg4
I10259
sg6
g7
sg8
I77978
sg9
g7
sg10
I01
sg11
g5
sg12
S'joe.hirko@enron.com'
p367
sg14
g5
sg15
g5
sg16
g5
sg17
g5
sg18
g5
sg19
I2856
sg20
g5
sg21
g5
sg22
I30766064
sg23
g5
sg24
g5
sg25
g5
sg26
g5
sg27
I91093
sg28
I30766064
ssS'DIETRICH JANET R'
p368
(dp369
g3
I2572
sg4
g5
sg6
I3665206
sg8
I3475
sg9
F0.12106261859582543
sg10
I00
sg11
g5
sg12
S'janet.dietrich@enron.com'
p370
sg14
I556416
sg15
g5
sg16
I1902
sg17
g5
sg18
I63
sg19
I473
sg20
g5
sg21
I600000
sg22
I1865087
sg23
I305
sg24
I14
sg25
I315068
sg26
I250100
sg27
I1410464
sg28
I1550019
ssS'DERRICK JR. JAMES V'
p371
(dp372
g3
I2181
sg4
g5
sg6
I18156201
sg8
I51124
sg9
F0.027184466019417475
sg10
I00
sg11
I-1284000
sg12
S'james.derrick@enron.com'
p373
sg14
I484000
sg15
I-1787380
sg16
I1401
sg17
g5
sg18
I909
sg19
I7482
sg20
g5
sg21
I800000
sg22
I8831913
sg23
I64
sg24
I20
sg25
I1787380
sg26
I492375
sg27
I550981
sg28
I8831913
ssS'FREVERT MARK A'
p374
(dp375
g3
I3275
sg4
I6426990
sg6
I26116635
sg8
I86987
sg9
F0.07524271844660194
sg10
I00
sg11
I-3367011
sg12
S'mark.frevert@enron.com'
p376
sg14
I1617011
sg15
g5
sg16
I2979
sg17
I2000000
sg18
I21
sg19
I7427621
sg20
g5
sg21
I2000000
sg22
I14622185
sg23
I242
sg24
I6
sg25
I4188667
sg26
I1060932
sg27
I17252530
sg28
I10433518
ssS'PAI LOU L'
p377
(dp378
g3
g5
sg4
g5
sg6
I39443976
sg8
I32047
sg9
g7
sg10
I00
sg11
g5
sg12
S'lou.pai@enron.com'
p379
sg14
g5
sg15
g5
sg16
g5
sg17
g5
sg18
g5
sg19
I1829457
sg20
g5
sg21
I1000000
sg22
I23817930
sg23
g5
sg24
g5
sg25
I8453763
sg26
I261879
sg27
I3123383
sg28
I15364167
ssS'HAYSLETT RODERICK J'
p380
(dp381
g3
I2649
sg4
g5
sg6
g7
sg8
g5
sg9
F0.019676549865229112
sg10
I00
sg11
g5
sg12
S'rod.hayslett@enron.com'
p382
sg14
g5
sg15
g5
sg16
I571
sg17
g5
sg18
I1061
sg19
g5
sg20
g5
sg21
g5
sg22
I346663
sg23
I35
sg24
I38
sg25
I346663
sg26
g5
sg27
g5
sg28
g5
ssS'BAY FRANKLIN R'
p383
(dp384
g3
g5
sg4
I260455
sg6
g7
sg8
I129142
sg9
g7
sg10
I00
sg11
I-201641
sg12
S'frank.bay@enron.com'
p385
sg14
g5
sg15
I-82782
sg16
g5
sg17
g5
sg18
g5
sg19
I69
sg20
g5
sg21
I400000
sg22
I63014
sg23
g5
sg24
g5
sg25
I145796
sg26
I239671
sg27
I827696
sg28
g5
ssS'MCCARTY DANNY J'
p386
(dp387
g3
I1433
sg4
g5
sg6
g7
sg8
g5
sg9
F0.016383495145631068
sg10
I00
sg11
g5
sg12
S'danny.mccarty@enron.com'
p388
sg14
g5
sg15
g5
sg16
I508
sg17
g5
sg18
I215
sg19
g5
sg20
g5
sg21
g5
sg22
I758931
sg23
I25
sg24
I2
sg25
I94556
sg26
g5
sg27
g5
sg28
I664375
ssS'FUGH JOHN L'
p389
(dp390
g3
g5
sg4
I50591
sg6
g7
sg8
g5
sg9
g7
sg10
I00
sg11
g5
sg12
g5
sg14
g5
sg15
g5
sg16
g5
sg17
g5
sg18
g5
sg19
g5
sg20
g5
sg21
g5
sg22
I176378
sg23
g5
sg24
g5
sg25
g5
sg26
g5
sg27
I50591
sg28
I176378
ssS'SCRIMSHAW MATTHEW'
p391
(dp392
g3
g5
sg4
g5
sg6
g7
sg8
g5
sg9
g7
sg10
I00
sg11
g5
sg12
S'matthew.scrimshaw@enron.com'
p393
sg14
g5
sg15
g5
sg16
g5
sg17
g5
sg18
g5
sg19
g5
sg20
g5
sg21
g5
sg22
I759557
sg23
g5
sg24
g5
sg25
g5
sg26
g5
sg27
g5
sg28
I759557
ssS'KOENIG MARK E'
p394
(dp395
g3
I2374
sg4
g5
sg6
I2901738
sg8
I127017
sg9
F0.02792607802874743
sg10
I01
sg11
g5
sg12
S'mark.koenig@enron.com'
p396
sg14
I300000
sg15
g5
sg16
I2271
sg17
g5
sg18
I61
sg19
I150458
sg20
g5
sg21
I700000
sg22
I1920055
sg23
I53
sg24
I15
sg25
I1248318
sg26
I309946
sg27
I1587421
sg28
I671737
ssS'SAVAGE FRANK'
p397
(dp398
g3
g5
sg4
g5
sg6
g7
sg8
g5
sg9
g7
sg10
I00
sg11
I-121284
sg12
g5
sg14
g5
sg15
g5
sg16
g5
sg17
g5
sg18
g5
sg19
g5
sg20
I125034
sg21
g5
sg22
g5
sg23
g5
sg24
g5
sg25
g5
sg26
g5
sg27
I3750
sg28
g5
ssS'IZZO LAWRENCE L'
p399
(dp400
g3
I496
sg4
g5
sg6
I8070426
sg8
I28093
sg9
F0.06407766990291262
sg10
I00
sg11
g5
sg12
S'larry.izzo@enron.com'
p401
sg14
I312500
sg15
g5
sg16
I437
sg17
g5
sg18
I19
sg19
I1553729
sg20
g5
sg21
g5
sg22
I5819980
sg23
I28
sg24
I5
sg25
I3654808
sg26
I85274
sg27
I1979596
sg28
I2165172
ssS'TILNEY ELIZABETH A'
p402
(dp403
g3
I460
sg4
g5
sg6
I2006630
sg8
g5
sg9
F0.04384133611691023
sg10
I00
sg11
I-575000
sg12
S'elizabeth.tilney@enron.com'
p404
sg14
I275000
sg15
g5
sg16
I379
sg17
g5
sg18
I19
sg19
I152055
sg20
g5
sg21
I300000
sg22
I1168042
sg23
I10
sg24
I11
sg25
I576792
sg26
I247338
sg27
I399393
sg28
I591250
ssS'MARTIN AMANDA K'
p405
(dp406
g3
I1522
sg4
I85430
sg6
I4490099
sg8
I8211
sg9
F0.0045662100456621
sg10
I00
sg11
g5
sg12
S'a..martin@enron.com'
p407
sg14
I5145434
sg15
g5
sg16
I477
sg17
g5
sg18
I230
sg19
I2818454
sg20
g5
sg21
g5
sg22
I2070306
sg23
I8
sg24
I0
sg25
g5
sg26
I349487
sg27
I8407016
sg28
I2070306
ssS'BUY RICHARD B'
p408
(dp409
g3
I3523
sg4
I649584
sg6
I6317829
sg8
g5
sg9
F0.04960664335664336
sg10
I00
sg11
I-694862
sg12
S'rick.buy@enron.com'
p410
sg14
I769862
sg15
g5
sg16
I2333
sg17
g5
sg18
I1053
sg19
I400572
sg20
g5
sg21
I900000
sg22
I3444470
sg23
I156
sg24
I71
sg25
I901657
sg26
I330546
sg27
I2355702
sg28
I2542813
ssS'GRAMM WENDY L'
p411
(dp412
g3
g5
sg4
g5
sg6
g7
sg8
g5
sg9
g7
sg10
I00
sg11
g5
sg12
g5
sg14
g5
sg15
g5
sg16
g5
sg17
g5
sg18
g5
sg19
g5
sg20
I119292
sg21
g5
sg22
g5
sg23
g5
sg24
g5
sg25
g5
sg26
g5
sg27
I119292
sg28
g5
ssS'CAUSEY RICHARD A'
p413
(dp414
g3
I1892
sg4
g5
sg6
g7
sg8
I30674
sg9
F0.03606388459556929
sg10
I01
sg11
I-235000
sg12
S'richard.causey@enron.com'
p415
sg14
I350000
sg15
g5
sg16
I1585
sg17
g5
sg18
I49
sg19
I307895
sg20
g5
sg21
I1000000
sg22
I2502063
sg23
I58
sg24
I12
sg25
I2502063
sg26
I415189
sg27
I1868758
sg28
g5
ssS'TAYLOR MITCHELL S'
p416
(dp417
g3
I533
sg4
I227449
sg6
I7191512
sg8
g5
sg9
F0.0
sg10
I00
sg11
g5
sg12
S'mitchell.taylor@enron.com'
p418
sg14
g5
sg15
g5
sg16
I300
sg17
g5
sg18
I29
sg19
g5
sg20
g5
sg21
I600000
sg22
I3745048
sg23
I0
sg24
I0
sg25
I563798
sg26
I265214
sg27
I1092663
sg28
I3181250
ssS'DONAHUE JR JEFFREY M'
p419
(dp420
g3
I865
sg4
g5
sg6
I2125509
sg8
I96268
sg9
F0.22435174746335965
sg10
I00
sg11
I-300000
sg12
S'jeff.donahue@enron.com'
p421
sg14
g5
sg15
g5
sg16
I772
sg17
g5
sg18
I22
sg19
I891
sg20
g5
sg21
I800000
sg22
I1080988
sg23
I188
sg24
I11
sg25
I315068
sg26
I278601
sg27
I875760
sg28
I765920
ssS'GLISAN JR BEN F'
p422
(dp423
g3
I873
sg4
g5
sg6
I1438249
sg8
I125978
sg9
F0.06524184476940383
sg10
I01
sg11
g5
sg12
S'ben.glisan@enron.com'
p424
sg14
I71023
sg15
g5
sg16
I874
sg17
g5
sg18
I16
sg19
I200308
sg20
g5
sg21
I600000
sg22
I778546
sg23
I52
sg24
I6
sg25
I393818
sg26
I274975
sg27
I1272284
sg28
I384728
ss.