(lp0
S'poi'
p1
aS'salary'
p2
aS'total_payments'
p3
aS'bonus'
p4
aS'financial_aggregate'
p5
aS'total_stock_value'
p6
aS'shared_receipt_with_poi'
p7
aS'exercised_stock_options'
p8
aS'deferred_income'
p9
aS'restricted_stock'
p10
aS'long_term_incentive'
p11
a.